target datalayout = "e-m:e-p270:32:32-p271:32:32-p272:64:64-i64:64-i128:128-f80:128-n8:16:32:64-S128"
target triple = "x86_64-pc-linux-gnu"

%struct.StreamCtl = type { i64, i32, ptr, i32, i8, i8, i8, ptr, i32, ptr, ptr, ptr }
%struct.WalWriteMethod = type { ptr, i32, i32, i8, ptr, i32 }
%struct.WalWriteMethodOps = type { ptr, ptr, ptr, ptr, ptr, ptr, ptr, ptr, ptr }
%struct.Walfile = type { ptr, i64, ptr }

@lastFlushPosition = internal global i64 0, align 8
@WalSegSz = external global i32, align 4
@walfile = internal global ptr null, align 8
@.str.19 = private unnamed_addr constant [30 x i8] c"could not close file \22%s\22: %s\00", align 1
@mark_file_as_archived.tmppath = internal global [1024 x i8] zeroinitializer, align 16
@.str.25 = private unnamed_addr constant [23 x i8] c"archive_status/%s.done\00", align 1
@.str.26 = private unnamed_addr constant [46 x i8] c"could not create archive status file \22%s\22: %s\00", align 1
@.str.27 = private unnamed_addr constant [45 x i8] c"could not close archive status file \22%s\22: %s\00", align 1
@.str.34 = private unnamed_addr constant [43 x i8] c"not renaming \22%s\22, segment is not complete\00", align 1

; Function Attrs: nounwind uwtable
define internal zeroext i1 @mark_file_as_archived(ptr noundef %0, ptr noundef %1) #0 {
  %3 = alloca i1, align 1
  %4 = alloca ptr, align 8
  %5 = alloca ptr, align 8
  %6 = alloca ptr, align 8
  %7 = alloca i32, align 4
  store ptr %0, ptr %4, align 8
  store ptr %1, ptr %5, align 8
  call void @llvm.lifetime.start.p0(i64 8, ptr %6) #9
  %8 = load ptr, ptr %5, align 8
  %9 = call i32 (ptr, i64, ptr, ...) @pg_snprintf(ptr noundef @mark_file_as_archived.tmppath, i64 noundef 1024, ptr noundef @.str.25, ptr noundef %8)
  %10 = load ptr, ptr %4, align 8
  %11 = getelementptr inbounds nuw %struct.StreamCtl, ptr %10, i32 0, i32 9
  %12 = load ptr, ptr %11, align 8
  %13 = getelementptr inbounds nuw %struct.WalWriteMethod, ptr %12, i32 0, i32 0
  %14 = load ptr, ptr %13, align 8
  %15 = getelementptr inbounds nuw %struct.WalWriteMethodOps, ptr %14, i32 0, i32 0
  %16 = load ptr, ptr %15, align 8
  %17 = load ptr, ptr %4, align 8
  %18 = getelementptr inbounds nuw %struct.StreamCtl, ptr %17, i32 0, i32 9
  %19 = load ptr, ptr %18, align 8
  %20 = call ptr %16(ptr noundef %19, ptr noundef @mark_file_as_archived.tmppath, ptr noundef null, i64 noundef 0)
  store ptr %20, ptr %6, align 8
  %21 = load ptr, ptr %6, align 8
  %22 = icmp eq ptr %21, null
  br i1 %22, label %23, label %28

23:                                               ; preds = %2
  %24 = load ptr, ptr %4, align 8
  %25 = getelementptr inbounds nuw %struct.StreamCtl, ptr %24, i32 0, i32 9
  %26 = load ptr, ptr %25, align 8
  %27 = call ptr @GetLastWalMethodError(ptr noundef %26)
  call void (i32, i32, ptr, ...) @pg_log_generic(i32 noundef 4, i32 noundef 0, ptr noundef @.str.26, ptr noundef @mark_file_as_archived.tmppath, ptr noundef %27)
  store i1 false, ptr %3, align 1
  store i32 1, ptr %7, align 4
  br label %45

28:                                               ; preds = %2
  %29 = load ptr, ptr %4, align 8
  %30 = getelementptr inbounds nuw %struct.StreamCtl, ptr %29, i32 0, i32 9
  %31 = load ptr, ptr %30, align 8
  %32 = getelementptr inbounds nuw %struct.WalWriteMethod, ptr %31, i32 0, i32 0
  %33 = load ptr, ptr %32, align 8
  %34 = getelementptr inbounds nuw %struct.WalWriteMethodOps, ptr %33, i32 0, i32 1
  %35 = load ptr, ptr %34, align 8
  %36 = load ptr, ptr %6, align 8
  %37 = call i32 %35(ptr noundef %36, i32 noundef 0)
  %38 = icmp ne i32 %37, 0
  br i1 %38, label %39, label %44

39:                                               ; preds = %28
  %40 = load ptr, ptr %4, align 8
  %41 = getelementptr inbounds nuw %struct.StreamCtl, ptr %40, i32 0, i32 9
  %42 = load ptr, ptr %41, align 8
  %43 = call ptr @GetLastWalMethodError(ptr noundef %42)
  call void (i32, i32, ptr, ...) @pg_log_generic(i32 noundef 4, i32 noundef 0, ptr noundef @.str.27, ptr noundef @mark_file_as_archived.tmppath, ptr noundef %43)
  store i1 false, ptr %3, align 1
  store i32 1, ptr %7, align 4
  br label %45

44:                                               ; preds = %28
  store i1 true, ptr %3, align 1
  store i32 1, ptr %7, align 4
  br label %45

45:                                               ; preds = %44, %39, %23
  call void @llvm.lifetime.end.p0(i64 8, ptr %6) #9
  %46 = load i1, ptr %3, align 1
  ret i1 %46
}

; Function Attrs: nounwind uwtable
define internal zeroext i1 @close_walfile(ptr noundef %0, i64 noundef %1) #0 {
  %3 = alloca i1, align 1
  %4 = alloca ptr, align 8
  %5 = alloca i64, align 8
  %6 = alloca ptr, align 8
  %7 = alloca i64, align 8
  %8 = alloca i32, align 4
  %9 = alloca [1024 x i8], align 16
  %10 = alloca i32, align 4
  store ptr %0, ptr %4, align 8
  store i64 %1, ptr %5, align 8
  call void @llvm.lifetime.start.p0(i64 8, ptr %6) #9
  call void @llvm.lifetime.start.p0(i64 8, ptr %7) #9
  call void @llvm.lifetime.start.p0(i64 4, ptr %8) #9
  call void @llvm.lifetime.start.p0(i64 1024, ptr %9) #9
  %11 = load ptr, ptr @walfile, align 8
  %12 = icmp eq ptr %11, null
  br i1 %12, label %13, label %14

13:                                               ; preds = %2
  store i1 true, ptr %3, align 1
  store i32 1, ptr %10, align 4
  br label %108

14:                                               ; preds = %2
  %15 = getelementptr inbounds [1024 x i8], ptr %9, i64 0, i64 0
  %16 = load ptr, ptr @walfile, align 8
  %17 = getelementptr inbounds nuw %struct.Walfile, ptr %16, i32 0, i32 2
  %18 = load ptr, ptr %17, align 8
  %19 = call i64 @strlcpy(ptr noundef %15, ptr noundef %18, i64 noundef 1024)
  %20 = load ptr, ptr @walfile, align 8
  %21 = getelementptr inbounds nuw %struct.Walfile, ptr %20, i32 0, i32 1
  %22 = load i64, ptr %21, align 8
  store i64 %22, ptr %7, align 8
  %23 = load ptr, ptr %4, align 8
  %24 = getelementptr inbounds nuw %struct.StreamCtl, ptr %23, i32 0, i32 9
  %25 = load ptr, ptr %24, align 8
  %26 = getelementptr inbounds nuw %struct.WalWriteMethod, ptr %25, i32 0, i32 0
  %27 = load ptr, ptr %26, align 8
  %28 = getelementptr inbounds nuw %struct.WalWriteMethodOps, ptr %27, i32 0, i32 4
  %29 = load ptr, ptr %28, align 8
  %30 = load ptr, ptr %4, align 8
  %31 = getelementptr inbounds nuw %struct.StreamCtl, ptr %30, i32 0, i32 9
  %32 = load ptr, ptr %31, align 8
  %33 = getelementptr inbounds [1024 x i8], ptr %9, i64 0, i64 0
  %34 = load ptr, ptr %4, align 8
  %35 = getelementptr inbounds nuw %struct.StreamCtl, ptr %34, i32 0, i32 10
  %36 = load ptr, ptr %35, align 8
  %37 = call ptr %29(ptr noundef %32, ptr noundef %33, ptr noundef %36)
  store ptr %37, ptr %6, align 8
  %38 = load ptr, ptr %4, align 8
  %39 = getelementptr inbounds nuw %struct.StreamCtl, ptr %38, i32 0, i32 10
  %40 = load ptr, ptr %39, align 8
  %41 = icmp ne ptr %40, null
  br i1 %41, label %42, label %69

42:                                               ; preds = %14
  %43 = load i64, ptr %7, align 8
  %44 = load i32, ptr @WalSegSz, align 4
  %45 = sext i32 %44 to i64
  %46 = icmp eq i64 %43, %45
  br i1 %46, label %47, label %57

47:                                               ; preds = %42
  %48 = load ptr, ptr %4, align 8
  %49 = getelementptr inbounds nuw %struct.StreamCtl, ptr %48, i32 0, i32 9
  %50 = load ptr, ptr %49, align 8
  %51 = getelementptr inbounds nuw %struct.WalWriteMethod, ptr %50, i32 0, i32 0
  %52 = load ptr, ptr %51, align 8
  %53 = getelementptr inbounds nuw %struct.WalWriteMethodOps, ptr %52, i32 0, i32 1
  %54 = load ptr, ptr %53, align 8
  %55 = load ptr, ptr @walfile, align 8
  %56 = call i32 %54(ptr noundef %55, i32 noundef 0)
  store i32 %56, ptr %8, align 4
  br label %68

57:                                               ; preds = %42
  %58 = load ptr, ptr %6, align 8
  call void (i32, i32, ptr, ...) @pg_log_generic(i32 noundef 2, i32 noundef 0, ptr noundef @.str.34, ptr noundef %58)
  %59 = load ptr, ptr %4, align 8
  %60 = getelementptr inbounds nuw %struct.StreamCtl, ptr %59, i32 0, i32 9
  %61 = load ptr, ptr %60, align 8
  %62 = getelementptr inbounds nuw %struct.WalWriteMethod, ptr %61, i32 0, i32 0
  %63 = load ptr, ptr %62, align 8
  %64 = getelementptr inbounds nuw %struct.WalWriteMethodOps, ptr %63, i32 0, i32 1
  %65 = load ptr, ptr %64, align 8
  %66 = load ptr, ptr @walfile, align 8
  %67 = call i32 %65(ptr noundef %66, i32 noundef 2)
  store i32 %67, ptr %8, align 4
  br label %68

68:                                               ; preds = %57, %47
  br label %79

69:                                               ; preds = %14
  %70 = load ptr, ptr %4, align 8
  %71 = getelementptr inbounds nuw %struct.StreamCtl, ptr %70, i32 0, i32 9
  %72 = load ptr, ptr %71, align 8
  %73 = getelementptr inbounds nuw %struct.WalWriteMethod, ptr %72, i32 0, i32 0
  %74 = load ptr, ptr %73, align 8
  %75 = getelementptr inbounds nuw %struct.WalWriteMethodOps, ptr %74, i32 0, i32 1
  %76 = load ptr, ptr %75, align 8
  %77 = load ptr, ptr @walfile, align 8
  %78 = call i32 %76(ptr noundef %77, i32 noundef 0)
  store i32 %78, ptr %8, align 4
  br label %79

79:                                               ; preds = %69, %68
  store ptr null, ptr @walfile, align 8
  %80 = load i32, ptr %8, align 4
  %81 = icmp ne i32 %80, 0
  br i1 %81, label %82, label %89

82:                                               ; preds = %79
  %83 = load ptr, ptr %6, align 8
  %84 = load ptr, ptr %4, align 8
  %85 = getelementptr inbounds nuw %struct.StreamCtl, ptr %84, i32 0, i32 9
  %86 = load ptr, ptr %85, align 8
  %87 = call ptr @GetLastWalMethodError(ptr noundef %86)
  call void (i32, i32, ptr, ...) @pg_log_generic(i32 noundef 4, i32 noundef 0, ptr noundef @.str.19, ptr noundef %83, ptr noundef %87)
  %88 = load ptr, ptr %6, align 8
  call void @pg_free(ptr noundef %88)
  store i1 false, ptr %3, align 1
  store i32 1, ptr %10, align 4
  br label %108

89:                                               ; preds = %79
  %90 = load ptr, ptr %6, align 8
  call void @pg_free(ptr noundef %90)
  %91 = load i64, ptr %7, align 8
  %92 = load i32, ptr @WalSegSz, align 4
  %93 = sext i32 %92 to i64
  %94 = icmp eq i64 %91, %93
  br i1 %94, label %95, label %106

95:                                               ; preds = %89
  %96 = load ptr, ptr %4, align 8
  %97 = getelementptr inbounds nuw %struct.StreamCtl, ptr %96, i32 0, i32 5
  %98 = load i8, ptr %97, align 1, !range !4, !noundef !5
  %99 = trunc i8 %98 to i1
  br i1 %99, label %100, label %106

100:                                              ; preds = %95
  %101 = load ptr, ptr %4, align 8
  %102 = getelementptr inbounds [1024 x i8], ptr %9, i64 0, i64 0
  %103 = call zeroext i1 @mark_file_as_archived(ptr noundef %101, ptr noundef %102)
  br i1 %103, label %105, label %104

104:                                              ; preds = %100
  store i1 false, ptr %3, align 1
  store i32 1, ptr %10, align 4
  br label %108

105:                                              ; preds = %100
  br label %106

106:                                              ; preds = %105, %95, %89
  %107 = load i64, ptr %5, align 8
  store i64 %107, ptr @lastFlushPosition, align 8
  store i1 true, ptr %3, align 1
  store i32 1, ptr %10, align 4
  br label %108

108:                                              ; preds = %106, %104, %82, %13
  call void @llvm.lifetime.end.p0(i64 1024, ptr %9) #9
  call void @llvm.lifetime.end.p0(i64 4, ptr %8) #9
  call void @llvm.lifetime.end.p0(i64 8, ptr %7) #9
  call void @llvm.lifetime.end.p0(i64 8, ptr %6) #9
  %109 = load i1, ptr %3, align 1
  ret i1 %109
}