; Function Attrs: nounwind uwtable
define internal fastcc noundef zeroext i1 @close_walfile(ptr noundef readonly captures(none) %0, i64 noundef %1) unnamed_addr #0 {
  %3 = alloca [1024 x i8], align 16
  call void @llvm.lifetime.start.p0(i64 1024, ptr nonnull %3) #11
  %4 = load ptr, ptr @walfile, align 8
  %5 = icmp eq ptr %4, null
  br i1 %5, label %60, label %6

6:                                                ; preds = %2
  %7 = getelementptr inbounds nuw i8, ptr %4, i64 16
  %8 = load ptr, ptr %7, align 8
  %9 = call i64 @strlcpy(ptr noundef nonnull dereferenceable(1) %3, ptr noundef nonnull dereferenceable(1) %8, i64 noundef 1024) #11
  %10 = load ptr, ptr @walfile, align 8
  %11 = getelementptr inbounds nuw i8, ptr %10, i64 8
  %12 = load i64, ptr %11, align 8
  %13 = getelementptr inbounds nuw i8, ptr %0, i64 48
  %14 = load ptr, ptr %13, align 8
  %15 = load ptr, ptr %14, align 8
  %16 = getelementptr inbounds nuw i8, ptr %15, i64 32
  %17 = load ptr, ptr %16, align 8
  %18 = getelementptr inbounds nuw i8, ptr %0, i64 56
  %19 = load ptr, ptr %18, align 8
  %20 = call ptr %17(ptr noundef nonnull %14, ptr noundef nonnull %3, ptr noundef %19) #11
  %21 = load ptr, ptr %18, align 8
  %.not = icmp eq ptr %21, null
  %22 = load i32, ptr @WalSegSz, align 4
  %23 = sext i32 %22 to i64
  %24 = icmp eq i64 %12, %23
  %or.cond = select i1 %.not, i1 true, i1 %24
  br i1 %or.cond, label %26, label %25

25:                                               ; preds = %6
  call void (i32, i32, ptr, ...) @pg_log_generic(i32 noundef 2, i32 noundef 0, ptr noundef nonnull @.str.34, ptr noundef %20) #11
  br label %26

26:                                               ; preds = %6, %25
  %.sink22 = phi i32 [ 2, %25 ], [ 0, %6 ]
  %27 = load ptr, ptr %13, align 8
  %28 = load ptr, ptr %27, align 8
  %29 = getelementptr inbounds nuw i8, ptr %28, i64 8
  %30 = load ptr, ptr %29, align 8
  %31 = load ptr, ptr @walfile, align 8
  %32 = call i32 %30(ptr noundef %31, i32 noundef %.sink22) #11
  store ptr null, ptr @walfile, align 8
  %.not20 = icmp eq i32 %32, 0
  br i1 %.not20, label %36, label %33

33:                                               ; preds = %26
  %34 = load ptr, ptr %13, align 8
  %35 = call ptr @GetLastWalMethodError(ptr noundef %34) #11
  call void (i32, i32, ptr, ...) @pg_log_generic(i32 noundef 4, i32 noundef 0, ptr noundef nonnull @.str.19, ptr noundef %20, ptr noundef %35) #11
  call void @pg_free(ptr noundef %20) #11
  br label %60

36:                                               ; preds = %26
  call void @pg_free(ptr noundef %20) #11
  %37 = load i32, ptr @WalSegSz, align 4
  %38 = sext i32 %37 to i64
  %39 = icmp eq i64 %12, %38
  br i1 %39, label %40, label %mark_file_as_archived.exit.thread

40:                                               ; preds = %36
  %41 = getelementptr inbounds nuw i8, ptr %0, i64 29
  %42 = load i8, ptr %41, align 1, !range !4, !noundef !5
  %43 = trunc nuw i8 %42 to i1
  br i1 %43, label %44, label %mark_file_as_archived.exit.thread

44:                                               ; preds = %40
  %45 = call i32 (ptr, i64, ptr, ...) @pg_snprintf(ptr noundef nonnull @mark_file_as_archived.tmppath, i64 noundef 1024, ptr noundef nonnull @.str.25, ptr noundef nonnull %3) #11
  %46 = load ptr, ptr %13, align 8
  %47 = load ptr, ptr %46, align 8
  %48 = load ptr, ptr %47, align 8
  %49 = call ptr %48(ptr noundef nonnull %46, ptr noundef nonnull @mark_file_as_archived.tmppath, ptr noundef null, i64 noundef 0) #11
  %50 = icmp eq ptr %49, null
  %51 = load ptr, ptr %13, align 8
  br i1 %50, label %mark_file_as_archived.exit, label %52

52:                                               ; preds = %44
  %53 = load ptr, ptr %51, align 8
  %54 = getelementptr inbounds nuw i8, ptr %53, i64 8
  %55 = load ptr, ptr %54, align 8
  %56 = call i32 %55(ptr noundef nonnull %49, i32 noundef 0) #11
  %.not.i = icmp eq i32 %56, 0
  br i1 %.not.i, label %mark_file_as_archived.exit.thread, label %57

57:                                               ; preds = %52
  %58 = load ptr, ptr %13, align 8
  br label %mark_file_as_archived.exit

mark_file_as_archived.exit:                       ; preds = %44, %57
  %.sink10.i = phi ptr [ %58, %57 ], [ %51, %44 ]
  %.str.27.sink.i = phi ptr [ @.str.27, %57 ], [ @.str.26, %44 ]
  %59 = call ptr @GetLastWalMethodError(ptr noundef %.sink10.i) #11
  call void (i32, i32, ptr, ...) @pg_log_generic(i32 noundef 4, i32 noundef 0, ptr noundef nonnull %.str.27.sink.i, ptr noundef nonnull @mark_file_as_archived.tmppath, ptr noundef %59) #11
  br label %60

mark_file_as_archived.exit.thread:                ; preds = %52, %40, %36
  store i64 %1, ptr @lastFlushPosition, align 8
  br label %60

60:                                               ; preds = %mark_file_as_archived.exit, %2, %mark_file_as_archived.exit.thread, %33
  %.018 = phi i1 [ false, %33 ], [ true, %mark_file_as_archived.exit.thread ], [ true, %2 ], [ false, %mark_file_as_archived.exit ]
  call void @llvm.lifetime.end.p0(i64 1024, ptr nonnull %3) #11
  ret i1 %.018
}